; Function Attrs: nounwind uwtable
define ptr @l_Vector_ofFnM___rarg(ptr noundef %0, ptr noundef %1, ptr noundef %2) #0 {
  %4 = ptrtoint ptr %0 to i64
  %5 = and i64 %4, 1
  %.not.i = icmp eq i64 %5, 0
  br i1 %.not.i, label %6, label %lean_mk_empty_array_with_capacity.exit

6:                                                ; preds = %3
  tail call void @lean_internal_panic_out_of_memory() #5
  unreachable

lean_mk_empty_array_with_capacity.exit:           ; preds = %3
  %7 = lshr i64 %4, 1
  %8 = shl i64 %7, 3
  %9 = add i64 %8, 24
  %10 = tail call ptr @lean_alloc_object(i64 noundef %9) #4
  store i32 1, ptr %10, align 4, !tbaa !6
  %11 = getelementptr inbounds nuw i8, ptr %10, i64 4
  %12 = load i32, ptr %11, align 4
  %13 = and i32 %12, 65535
  %14 = or disjoint i32 %13, -167772160
  store i32 %14, ptr %11, align 4
  %15 = getelementptr inbounds nuw i8, ptr %10, i64 8
  store i64 0, ptr %15, align 8, !tbaa !15
  %16 = getelementptr inbounds nuw i8, ptr %10, i64 16
  store i64 %7, ptr %16, align 8, !tbaa !15
  %17 = tail call ptr @l_Vector_ofFnM_go___rarg(ptr noundef %0, ptr noundef %1, ptr noundef %2, ptr noundef nonnull inttoptr (i64 1 to ptr), ptr nonnull poison, ptr noundef nonnull %10, ptr nonnull poison)
  ret ptr %17
}